ARM GAS  C:\Users\acer\AppData\Local\Temp\ccxJX03x.s 			page 1


   1              		.syntax unified
   2              		.cpu cortex-m3
   3              		.fpu softvfp
   4              		.eabi_attribute 20, 1
   5              		.eabi_attribute 21, 1
   6              		.eabi_attribute 23, 3
   7              		.eabi_attribute 24, 1
   8              		.eabi_attribute 25, 1
   9              		.eabi_attribute 26, 1
  10              		.eabi_attribute 30, 1
  11              		.eabi_attribute 34, 1
  12              		.eabi_attribute 18, 4
  13              		.thumb
  14              		.syntax unified
  15              		.file	"pwm.c"
  16              		.text
  17              	.Ltext0:
  18              		.cfi_sections	.debug_frame
  19              		.section	.text.PWM_Init,"ax",%progbits
  20              		.align	2
  21              		.global	PWM_Init
  22              		.thumb
  23              		.thumb_func
  24              		.type	PWM_Init, %function
  25              	PWM_Init:
  26              	.LFB110:
  27              		.file 1 "source\\bsw\\pwm.c"
   1:source\bsw/pwm.c **** /**
   2:source\bsw/pwm.c **** * \file joystick.c
   3:source\bsw/pwm.c **** * \author P. Fromm
   4:source\bsw/pwm.c **** * \date 29.8.17
   5:source\bsw/pwm.c **** *
   6:source\bsw/pwm.c **** * \brief PWM driver
   7:source\bsw/pwm.c **** *
   8:source\bsw/pwm.c **** * \copyright Copyright ©2016
   9:source\bsw/pwm.c **** * Department of electrical engineering and information technology, Hochschule Darmstadt - Universit
  10:source\bsw/pwm.c **** * Permission to use, copy, modify, and distribute this software and its documentation for education
  11:source\bsw/pwm.c **** * (unless permitted by h_da) and official h_da projects, is hereby granted for enrolled students of
  12:source\bsw/pwm.c **** * this paragraph and the following paragraph appear in all copies, modifications, and distributions
  13:source\bsw/pwm.c **** * Contact Prof.Dr.-Ing. Peter Fromm, peter.fromm@h-da.de, Birkenweg 8 64295 Darmstadt - GERMANY for
  14:source\bsw/pwm.c **** *
  15:source\bsw/pwm.c **** * \warning This software is a PROTOTYPE version and is not designed or intended for use in producti
  16:source\bsw/pwm.c **** * The user represents and warrants that it will NOT use or redistribute the Software for such purpo
  17:source\bsw/pwm.c **** * This prototype is for research purposes only. This software is provided "AS IS," without a warran
  18:source\bsw/pwm.c **** */
  19:source\bsw/pwm.c **** 
  20:source\bsw/pwm.c **** /*****************************************************************************/
  21:source\bsw/pwm.c **** /* Include files                                                             */
  22:source\bsw/pwm.c **** /*****************************************************************************/
  23:source\bsw/pwm.c **** 
  24:source\bsw/pwm.c **** #include "project.h"
  25:source\bsw/pwm.c **** #include "pwm.h"
  26:source\bsw/pwm.c **** 
  27:source\bsw/pwm.c **** 
  28:source\bsw/pwm.c **** 
  29:source\bsw/pwm.c **** /*****************************************************************************/
  30:source\bsw/pwm.c **** /* Local pre-processor symbols/macros ('#define')                            */
ARM GAS  C:\Users\acer\AppData\Local\Temp\ccxJX03x.s 			page 2


  31:source\bsw/pwm.c **** /*****************************************************************************/
  32:source\bsw/pwm.c **** 
  33:source\bsw/pwm.c **** /*****************************************************************************/
  34:source\bsw/pwm.c **** /* Global variable definitions (declared in header file with 'extern')       */
  35:source\bsw/pwm.c **** /*****************************************************************************/
  36:source\bsw/pwm.c **** 
  37:source\bsw/pwm.c **** /*****************************************************************************/
  38:source\bsw/pwm.c **** /* Local type definitions ('typedef')                                        */
  39:source\bsw/pwm.c **** /*****************************************************************************/
  40:source\bsw/pwm.c **** 
  41:source\bsw/pwm.c **** /*****************************************************************************/
  42:source\bsw/pwm.c **** /* Local variable definitions ('static')                                     */
  43:source\bsw/pwm.c **** /*****************************************************************************/
  44:source\bsw/pwm.c **** 
  45:source\bsw/pwm.c **** 
  46:source\bsw/pwm.c **** 
  47:source\bsw/pwm.c **** /*****************************************************************************/
  48:source\bsw/pwm.c **** /* Local function prototypes ('static')                                      */
  49:source\bsw/pwm.c **** /*****************************************************************************/
  50:source\bsw/pwm.c **** 
  51:source\bsw/pwm.c **** 
  52:source\bsw/pwm.c **** /*****************************************************************************/
  53:source\bsw/pwm.c **** /* Function implementation - global ('extern') and local ('static')          */
  54:source\bsw/pwm.c **** /*****************************************************************************/
  55:source\bsw/pwm.c **** 
  56:source\bsw/pwm.c **** /**
  57:source\bsw/pwm.c ****  * Initialisation of the PWM
  58:source\bsw/pwm.c ****  * @return RC_SUCCESS if all ok
  59:source\bsw/pwm.c ****  */
  60:source\bsw/pwm.c **** RC_t PWM_Init()
  61:source\bsw/pwm.c **** {
  28              		.loc 1 61 0
  29              		.cfi_startproc
  30              		@ args = 0, pretend = 0, frame = 0
  31              		@ frame_needed = 0, uses_anonymous_args = 0
  32 0000 08B5     		push	{r3, lr}
  33              		.cfi_def_cfa_offset 8
  34              		.cfi_offset 3, -8
  35              		.cfi_offset 14, -4
  62:source\bsw/pwm.c ****     RGB_PWM_red_Start();
  36              		.loc 1 62 0
  37 0002 FFF7FEFF 		bl	RGB_PWM_red_Start
  38              	.LVL0:
  63:source\bsw/pwm.c ****     RGB_PWM_green_Start();
  39              		.loc 1 63 0
  40 0006 FFF7FEFF 		bl	RGB_PWM_green_Start
  41              	.LVL1:
  64:source\bsw/pwm.c ****     RGB_PWM_blue_Start();
  42              		.loc 1 64 0
  43 000a FFF7FEFF 		bl	RGB_PWM_blue_Start
  44              	.LVL2:
  65:source\bsw/pwm.c ****     
  66:source\bsw/pwm.c ****     RGB_PWM_red_WriteCompare(0);
  45              		.loc 1 66 0
  46 000e 0020     		movs	r0, #0
  47 0010 FFF7FEFF 		bl	RGB_PWM_red_WriteCompare
  48              	.LVL3:
ARM GAS  C:\Users\acer\AppData\Local\Temp\ccxJX03x.s 			page 3


  67:source\bsw/pwm.c ****     RGB_PWM_green_WriteCompare(0);
  49              		.loc 1 67 0
  50 0014 0020     		movs	r0, #0
  51 0016 FFF7FEFF 		bl	RGB_PWM_green_WriteCompare
  52              	.LVL4:
  68:source\bsw/pwm.c ****     RGB_PWM_blue_WriteCompare(0);
  53              		.loc 1 68 0
  54 001a 0020     		movs	r0, #0
  55 001c FFF7FEFF 		bl	RGB_PWM_blue_WriteCompare
  56              	.LVL5:
  69:source\bsw/pwm.c ****     
  70:source\bsw/pwm.c ****     return RC_SUCCESS;
  71:source\bsw/pwm.c **** }
  57              		.loc 1 71 0
  58 0020 0020     		movs	r0, #0
  59 0022 08BD     		pop	{r3, pc}
  60              		.cfi_endproc
  61              	.LFE110:
  62              		.size	PWM_Init, .-PWM_Init
  63              		.section	.text.PWM_RGB_SET,"ax",%progbits
  64              		.align	2
  65              		.global	PWM_RGB_SET
  66              		.thumb
  67              		.thumb_func
  68              		.type	PWM_RGB_SET, %function
  69              	PWM_RGB_SET:
  70              	.LFB111:
  72:source\bsw/pwm.c **** 
  73:source\bsw/pwm.c **** 
  74:source\bsw/pwm.c **** /**
  75:source\bsw/pwm.c ****  * Set RGB values to the RGB LED
  76:source\bsw/pwm.c ****  * @param uint8_t pwm_value - pwm_value is the duty cycle
  77:source\bsw/pwm.c ****  * @return RC_SUCCESS if all ok
  78:source\bsw/pwm.c ****  */
  79:source\bsw/pwm.c **** RC_t PWM_RGB_SET(uint8_t pwm_value)
  80:source\bsw/pwm.c **** {
  71              		.loc 1 80 0
  72              		.cfi_startproc
  73              		@ args = 0, pretend = 0, frame = 0
  74              		@ frame_needed = 0, uses_anonymous_args = 0
  75              	.LVL6:
  76 0000 08B5     		push	{r3, lr}
  77              		.cfi_def_cfa_offset 8
  78              		.cfi_offset 3, -8
  79              		.cfi_offset 14, -4
  81:source\bsw/pwm.c ****     RGB_PWM_green_WriteCompare(pwm_value);
  80              		.loc 1 81 0
  81 0002 FFF7FEFF 		bl	RGB_PWM_green_WriteCompare
  82              	.LVL7:
  82:source\bsw/pwm.c ****     return RC_SUCCESS;
  83:source\bsw/pwm.c **** }
  83              		.loc 1 83 0
  84 0006 0020     		movs	r0, #0
  85 0008 08BD     		pop	{r3, pc}
  86              		.cfi_endproc
  87              	.LFE111:
  88              		.size	PWM_RGB_SET, .-PWM_RGB_SET
ARM GAS  C:\Users\acer\AppData\Local\Temp\ccxJX03x.s 			page 4


  89 000a 00BF     		.text
  90              	.Letext0:
  91              		.file 2 "c:\\program files (x86)\\cypress\\psoc creator\\4.4\\psoc creator\\import\\gnu\\arm\\5.4.
  92              		.file 3 "c:\\program files (x86)\\cypress\\psoc creator\\4.4\\psoc creator\\import\\gnu\\arm\\5.4.
  93              		.file 4 "Generated_Source\\PSoC5/ErikaOS_1_common_ee_types.inc"
  94              		.file 5 "Generated_Source\\PSoC5/ErikaOS_1_cortex_mx_ee_cpu.inc"
  95              		.file 6 "source\\bsw\\global.h"
  96              		.file 7 "Generated_Source\\PSoC5/ErikaOS_1_ee_oo_intfunc.inc"
  97              		.file 8 "Generated_Source\\PSoC5/ErikaOS_1_cortex_mx_ee_context.inc"
  98              		.file 9 "Generated_Source\\PSoC5/ErikaOS_1_common_ee_primitives.inc"
  99              		.file 10 "Generated_Source\\PSoC5/core_cm3.h"
 100              		.file 11 "Generated_Source\\PSoC5/RGB_PWM_red.h"
 101              		.file 12 "Generated_Source\\PSoC5/RGB_PWM_green.h"
 102              		.file 13 "Generated_Source\\PSoC5/RGB_PWM_blue.h"