ARM GAS  C:\Users\acer\AppData\Local\Temp\ccmFJ5HO.s 			page 1


   1              		.syntax unified
   2              		.cpu cortex-m3
   3              		.fpu softvfp
   4              		.eabi_attribute 20, 1
   5              		.eabi_attribute 21, 1
   6              		.eabi_attribute 23, 3
   7              		.eabi_attribute 24, 1
   8              		.eabi_attribute 25, 1
   9              		.eabi_attribute 26, 1
  10              		.eabi_attribute 30, 1
  11              		.eabi_attribute 34, 1
  12              		.eabi_attribute 18, 4
  13              		.thumb
  14              		.syntax unified
  15              		.file	"swc_engine.c"
  16              		.text
  17              	.Ltext0:
  18              		.cfi_sections	.debug_frame
  19              		.section	.text.ENGINE_setEngine_run,"ax",%progbits
  20              		.align	2
  21              		.global	ENGINE_setEngine_run
  22              		.thumb
  23              		.thumb_func
  24              		.type	ENGINE_setEngine_run, %function
  25              	ENGINE_setEngine_run:
  26              	.LFB154:
  27              		.file 1 "source\\asw\\swc_engine.c"
   1:source\asw/swc_engine.c **** /*
   2:source\asw/swc_engine.c ****  * Filename: swc_engine.c
   3:source\asw/swc_engine.c ****  *
   4:source\asw/swc_engine.c ****  * Author: Autogenerated by H-DA RTE Generator, (c) Prof. Fromm
   5:source\asw/swc_engine.c ****  *
   6:source\asw/swc_engine.c ****  * description: Software component
   7:source\asw/swc_engine.c ****  * name: swc_engine
   8:source\asw/swc_engine.c ****  * shortname: engine
   9:source\asw/swc_engine.c ****  *
  10:source\asw/swc_engine.c ****  */
  11:source\asw/swc_engine.c **** 
  12:source\asw/swc_engine.c **** #include "project.h"
  13:source\asw/swc_engine.c **** #include "global.h"
  14:source\asw/swc_engine.c **** #include "rte.h"
  15:source\asw/swc_engine.c **** #include "rte_types.h"
  16:source\asw/swc_engine.c **** #include "swc_engine.h"
  17:source\asw/swc_engine.c **** 
  18:source\asw/swc_engine.c **** 
  19:source\asw/swc_engine.c **** 
  20:source\asw/swc_engine.c **** /* USER CODE START SWC_ENGINE_INCLUDE */
  21:source\asw/swc_engine.c **** #include "stdlib.h"
  22:source\asw/swc_engine.c **** /* USER CODE END SWC_ENGINE_INCLUDE */
  23:source\asw/swc_engine.c **** 
  24:source\asw/swc_engine.c **** 
  25:source\asw/swc_engine.c **** #include "sp_common.h"
  26:source\asw/swc_engine.c **** 
  27:source\asw/swc_engine.c **** /* USER CODE START SWC_ENGINE_USERDEFINITIONS */
  28:source\asw/swc_engine.c **** 
  29:source\asw/swc_engine.c **** /* USER CODE END SWC_ENGINE_USERDEFINITIONS */
  30:source\asw/swc_engine.c **** 
ARM GAS  C:\Users\acer\AppData\Local\Temp\ccmFJ5HO.s 			page 2


  31:source\asw/swc_engine.c **** 
  32:source\asw/swc_engine.c **** 
  33:source\asw/swc_engine.c **** /*
  34:source\asw/swc_engine.c ****  * component: swc_engine
  35:source\asw/swc_engine.c ****  * cycletime: 100
  36:source\asw/swc_engine.c ****  * description: Runnable
  37:source\asw/swc_engine.c ****  * events: 
  38:source\asw/swc_engine.c ****  * name: ENGINE_setEngine_run
  39:source\asw/swc_engine.c ****  * shortname: setEngine
  40:source\asw/swc_engine.c ****  * signalIN: so_speed
  41:source\asw/swc_engine.c ****  * signalOUT: so_engine
  42:source\asw/swc_engine.c ****  * task: tsk_io
  43:source\asw/swc_engine.c ****  */
  44:source\asw/swc_engine.c **** void ENGINE_setEngine_run(RTE_event ev){
  28              		.loc 1 44 0
  29              		.cfi_startproc
  30              		@ args = 0, pretend = 0, frame = 24
  31              		@ frame_needed = 0, uses_anonymous_args = 0
  32              	.LVL0:
  33 0000 70B5     		push	{r4, r5, r6, lr}
  34              		.cfi_def_cfa_offset 16
  35              		.cfi_offset 4, -16
  36              		.cfi_offset 5, -12
  37              		.cfi_offset 6, -8
  38              		.cfi_offset 14, -4
  39 0002 86B0     		sub	sp, sp, #24
  40              		.cfi_def_cfa_offset 40
  45:source\asw/swc_engine.c **** 	
  46:source\asw/swc_engine.c **** 	/* USER CODE START ENGINE_setEngine_run */
  47:source\asw/swc_engine.c ****     
  48:source\asw/swc_engine.c ****     // UART Log fro verification
  49:source\asw/swc_engine.c ****    
  50:source\asw/swc_engine.c ****     UART_LOG_PutString("\n");
  41              		.loc 1 50 0
  42 0004 2C48     		ldr	r0, .L13
  43              	.LVL1:
  44 0006 FFF7FEFF 		bl	UART_LOG_PutString
  45              	.LVL2:
  46              	.LBB17:
  47              	.LBB18:
  48              		.file 2 ".\\source\\rte/sc_engine.h"
   1:.\source\rte/sc_engine.h **** 
   2:.\source\rte/sc_engine.h **** 
   3:.\source\rte/sc_engine.h **** /**
   4:.\source\rte/sc_engine.h ****  *  file    SC_ENGINE_signal.h
   5:.\source\rte/sc_engine.h ****  *
   6:.\source\rte/sc_engine.h ****  *  brief   signal base class for signal sc_engine
   7:.\source\rte/sc_engine.h ****  *
   8:.\source\rte/sc_engine.h ****  *  author  Autogenerated, Peter Fromm       <peter.fromm@h-da.de>
   9:.\source\rte/sc_engine.h ****  *
  10:.\source\rte/sc_engine.h ****  * description: Signalclass
  11:.\source\rte/sc_engine.h ****  * name: sc_engine
  12:.\source\rte/sc_engine.h ****  * shortname: engine
  13:.\source\rte/sc_engine.h ****  *
  14:.\source\rte/sc_engine.h ****  */
  15:.\source\rte/sc_engine.h **** 
  16:.\source\rte/sc_engine.h **** 
ARM GAS  C:\Users\acer\AppData\Local\Temp\ccmFJ5HO.s 			page 3


  17:.\source\rte/sc_engine.h **** 
  18:.\source\rte/sc_engine.h **** #ifndef SC_ENGINE_SIGNAL_H_INCLUDED
  19:.\source\rte/sc_engine.h **** #define SC_ENGINE_SIGNAL_H_INCLUDED
  20:.\source\rte/sc_engine.h **** 
  21:.\source\rte/sc_engine.h **** /*================================================[ public includes  ]=============================
  22:.\source\rte/sc_engine.h **** #include "global.h"
  23:.\source\rte/sc_engine.h **** #include "project.h"
  24:.\source\rte/sc_engine.h **** #include "rte.h"
  25:.\source\rte/sc_engine.h **** #include "rte_types.h"
  26:.\source\rte/sc_engine.h **** 
  27:.\source\rte/sc_engine.h **** #include "sc_engine_type.h"
  28:.\source\rte/sc_engine.h **** 
  29:.\source\rte/sc_engine.h **** 
  30:.\source\rte/sc_engine.h **** /**************************************************************************************************
  31:.\source\rte/sc_engine.h **** /* The driver API block																						*/
  32:.\source\rte/sc_engine.h **** /**************************************************************************************************
  33:.\source\rte/sc_engine.h ****                                                                                                    
  34:.\source\rte/sc_engine.h **** /**
  35:.\source\rte/sc_engine.h ****  *  Definition of function types for driver interfaces.
  36:.\source\rte/sc_engine.h ****  *  I-Port
  37:.\source\rte/sc_engine.h ****  */
  38:.\source\rte/sc_engine.h **** typedef RC_t (*SC_ENGINE_driverIn_t)(SC_ENGINE_data_t * const);
  39:.\source\rte/sc_engine.h **** 
  40:.\source\rte/sc_engine.h **** /**
  41:.\source\rte/sc_engine.h ****  *  Definition of function types for driver interfaces.
  42:.\source\rte/sc_engine.h ****  *  O-Port
  43:.\source\rte/sc_engine.h ****  */
  44:.\source\rte/sc_engine.h **** typedef RC_t (*SC_ENGINE_driverOut_t)( const SC_ENGINE_data_t * const);
  45:.\source\rte/sc_engine.h **** 
  46:.\source\rte/sc_engine.h **** 
  47:.\source\rte/sc_engine.h **** /**************************************************************************************************
  48:.\source\rte/sc_engine.h **** /* The signal configuration API block																				*/
  49:.\source\rte/sc_engine.h **** /**************************************************************************************************
  50:.\source\rte/sc_engine.h **** 
  51:.\source\rte/sc_engine.h **** /**
  52:.\source\rte/sc_engine.h ****  * Instances of the struct SC_ENGINE_cfg_t represent the signal object configuration.
  53:.\source\rte/sc_engine.h ****  */
  54:.\source\rte/sc_engine.h **** struct SC_ENGINE_cfg_s
  55:.\source\rte/sc_engine.h **** {
  56:.\source\rte/sc_engine.h ****     /**
  57:.\source\rte/sc_engine.h ****      * Function pointer to the input driver
  58:.\source\rte/sc_engine.h ****      */
  59:.\source\rte/sc_engine.h ****     SC_ENGINE_driverIn_t const inDriver;
  60:.\source\rte/sc_engine.h **** 
  61:.\source\rte/sc_engine.h ****     /**
  62:.\source\rte/sc_engine.h ****      * Function pointer to the output driver table
  63:.\source\rte/sc_engine.h ****      */
  64:.\source\rte/sc_engine.h ****    SC_ENGINE_driverOut_t const outDriver;
  65:.\source\rte/sc_engine.h ****    
  66:.\source\rte/sc_engine.h ****     /**
  67:.\source\rte/sc_engine.h ****      * Event onUpdate
  68:.\source\rte/sc_engine.h ****      */
  69:.\source\rte/sc_engine.h ****     EventMaskType const evOnUpdate;
  70:.\source\rte/sc_engine.h ****     
  71:.\source\rte/sc_engine.h ****     
  72:.\source\rte/sc_engine.h ****     /**
  73:.\source\rte/sc_engine.h ****      * Event onError
ARM GAS  C:\Users\acer\AppData\Local\Temp\ccmFJ5HO.s 			page 4


  74:.\source\rte/sc_engine.h ****      */
  75:.\source\rte/sc_engine.h ****     EventMaskType const evOnError;
  76:.\source\rte/sc_engine.h ****     
  77:.\source\rte/sc_engine.h ****     /**
  78:.\source\rte/sc_engine.h ****      * Task Count onUpdate
  79:.\source\rte/sc_engine.h ****      */
  80:.\source\rte/sc_engine.h ****     size_t const onUpdateTaskCount;
  81:.\source\rte/sc_engine.h **** 
  82:.\source\rte/sc_engine.h ****     /**
  83:.\source\rte/sc_engine.h ****      * Task List onUpdate
  84:.\source\rte/sc_engine.h ****      */
  85:.\source\rte/sc_engine.h ****     TaskTypeArray* const onUpdateTasks;
  86:.\source\rte/sc_engine.h ****     
  87:.\source\rte/sc_engine.h ****     /**
  88:.\source\rte/sc_engine.h ****      * Task Count onError
  89:.\source\rte/sc_engine.h ****      */
  90:.\source\rte/sc_engine.h ****     size_t const onErrorTaskCount;
  91:.\source\rte/sc_engine.h **** 
  92:.\source\rte/sc_engine.h ****     /**
  93:.\source\rte/sc_engine.h ****      * Task List onError
  94:.\source\rte/sc_engine.h ****      */
  95:.\source\rte/sc_engine.h ****     TaskTypeArray* const onErrorTasks;
  96:.\source\rte/sc_engine.h **** 	
  97:.\source\rte/sc_engine.h **** 	
  98:.\source\rte/sc_engine.h **** 	/**
  99:.\source\rte/sc_engine.h **** 	 * Ressourse is active? We need an additional boolean as a ressource value 0 is valid.
 100:.\source\rte/sc_engine.h **** 	 */
 101:.\source\rte/sc_engine.h **** 	 boolean_t const resourceActive;
 102:.\source\rte/sc_engine.h **** 	 
 103:.\source\rte/sc_engine.h **** 	/**
 104:.\source\rte/sc_engine.h **** 	 * Ressourse 
 105:.\source\rte/sc_engine.h **** 	 */
 106:.\source\rte/sc_engine.h **** 	 ResourceType const resource;
 107:.\source\rte/sc_engine.h **** 
 108:.\source\rte/sc_engine.h **** };                                                                                                 
 109:.\source\rte/sc_engine.h **** typedef const struct SC_ENGINE_cfg_s SC_ENGINE_cfg_t;
 110:.\source\rte/sc_engine.h ****                               
 111:.\source\rte/sc_engine.h **** /**************************************************************************************************
 112:.\source\rte/sc_engine.h **** /* The data interface block																							*/
 113:.\source\rte/sc_engine.h **** /**************************************************************************************************
 114:.\source\rte/sc_engine.h **** 
 115:.\source\rte/sc_engine.h ****                                                                                                    
 116:.\source\rte/sc_engine.h **** 							  
 117:.\source\rte/sc_engine.h **** /**
 118:.\source\rte/sc_engine.h ****  * Instances of the struct SC_ENGINE_t represent the signal objects.
 119:.\source\rte/sc_engine.h ****  * A signal object contains the current application value 'value' as well as relevant meta data.
 120:.\source\rte/sc_engine.h ****  */
 121:.\source\rte/sc_engine.h **** struct SC_ENGINE_s
 122:.\source\rte/sc_engine.h **** {                                                                                                  
 123:.\source\rte/sc_engine.h **** 
 124:.\source\rte/sc_engine.h **** 	/**
 125:.\source\rte/sc_engine.h **** 	 * Data buffer for the application value
 126:.\source\rte/sc_engine.h **** 	 */
 127:.\source\rte/sc_engine.h ****     SC_ENGINE_data_t value;
 128:.\source\rte/sc_engine.h **** 
 129:.\source\rte/sc_engine.h ****     /**
 130:.\source\rte/sc_engine.h ****      * Current signal status
ARM GAS  C:\Users\acer\AppData\Local\Temp\ccmFJ5HO.s 			page 5


 131:.\source\rte/sc_engine.h ****      */
 132:.\source\rte/sc_engine.h ****     RTE_signalStatus_t status;
 133:.\source\rte/sc_engine.h **** 
 134:.\source\rte/sc_engine.h ****     /**
 135:.\source\rte/sc_engine.h ****      * Current age of the signal (in calling cycles)
 136:.\source\rte/sc_engine.h ****      */
 137:.\source\rte/sc_engine.h ****     uint32_t age;
 138:.\source\rte/sc_engine.h **** 
 139:.\source\rte/sc_engine.h ****     /**
 140:.\source\rte/sc_engine.h ****      * Pointer to the signal configuration
 141:.\source\rte/sc_engine.h ****      */
 142:.\source\rte/sc_engine.h **** 	const SC_ENGINE_cfg_t * const    pSigCfg;
 143:.\source\rte/sc_engine.h **** 
 144:.\source\rte/sc_engine.h **** };                                                                                                 
 145:.\source\rte/sc_engine.h **** typedef struct SC_ENGINE_s SC_ENGINE_t;
 146:.\source\rte/sc_engine.h **** 
 147:.\source\rte/sc_engine.h **** /**************************************************************************************************
 148:.\source\rte/sc_engine.h **** /* Signal initialisation   																							*/
 149:.\source\rte/sc_engine.h **** /**************************************************************************************************
 150:.\source\rte/sc_engine.h **** 
 151:.\source\rte/sc_engine.h **** /**
 152:.\source\rte/sc_engine.h ****  * Initializes a signal instance with a passed init value.
 153:.\source\rte/sc_engine.h ****  * Depending on the configured conversion or scaling function the raw_value will be calculated.
 154:.\source\rte/sc_engine.h ****  * Signal status will change from RTE_SIGNALSTATUS_STARTUP to RTE_SIGNALSTATUS_INITIALIZED.
 155:.\source\rte/sc_engine.h ****  *
 156:.\source\rte/sc_engine.h ****  * @param  SC_ENGINE_t * const signal: Pointer to the signal object which will be initialised
 157:.\source\rte/sc_engine.h ****  * @return RC_t: standard return code, currently only RC_SUCCESS
 158:.\source\rte/sc_engine.h ****  *
 159:.\source\rte/sc_engine.h ****  **/
 160:.\source\rte/sc_engine.h **** inline RC_t RTE_SC_ENGINE_init( SC_ENGINE_t * const signal )
 161:.\source\rte/sc_engine.h **** {                                                                                                  
 162:.\source\rte/sc_engine.h **** 
 163:.\source\rte/sc_engine.h ****    RC_t ret = RC_SUCCESS;
 164:.\source\rte/sc_engine.h **** 
 165:.\source\rte/sc_engine.h ****    //Set value and raw value
 166:.\source\rte/sc_engine.h ****    signal->value  = SC_ENGINE_INIT_DATA;
 167:.\source\rte/sc_engine.h ****    signal->age    = 0;
 168:.\source\rte/sc_engine.h ****    signal->status = RTE_SIGNALSTATUS_INITIALIZED;
 169:.\source\rte/sc_engine.h **** 
 170:.\source\rte/sc_engine.h ****    return ret;
 171:.\source\rte/sc_engine.h **** }
 172:.\source\rte/sc_engine.h **** 
 173:.\source\rte/sc_engine.h **** /**************************************************************************************************
 174:.\source\rte/sc_engine.h **** /* Status and timeout control																						*/
 175:.\source\rte/sc_engine.h **** /**************************************************************************************************
 176:.\source\rte/sc_engine.h **** 
 177:.\source\rte/sc_engine.h **** /**
 178:.\source\rte/sc_engine.h ****  *  Returns the current signal status of the passed signal instance.
 179:.\source\rte/sc_engine.h ****  *
 180:.\source\rte/sc_engine.h ****  * @param  SC_ENGINE_t * const signal: Pointer to the signal object
 181:.\source\rte/sc_engine.h ****  * @return  sig_status_t: The current signal status
 182:.\source\rte/sc_engine.h ****  *
 183:.\source\rte/sc_engine.h ****  **/
 184:.\source\rte/sc_engine.h **** inline RTE_signalStatus_t RTE_SC_ENGINE_getStatus( const SC_ENGINE_t * const signal )
 185:.\source\rte/sc_engine.h **** {
 186:.\source\rte/sc_engine.h ****    return signal->status;
 187:.\source\rte/sc_engine.h **** }
ARM GAS  C:\Users\acer\AppData\Local\Temp\ccmFJ5HO.s 			page 6


 188:.\source\rte/sc_engine.h **** 
 189:.\source\rte/sc_engine.h **** 
 190:.\source\rte/sc_engine.h **** /**
 191:.\source\rte/sc_engine.h ****  *  Sets a new signal status of the passed signal instance by passing the new status.
 192:.\source\rte/sc_engine.h ****  *
 193:.\source\rte/sc_engine.h ****  * @param  SC_ENGINE_t * const signal: Pointer to the signal object
 194:.\source\rte/sc_engine.h ****  * @param  const sig_status_t status: New signal status
 195:.\source\rte/sc_engine.h ****  * @return RC_t: standard return code, currently only RC_SUCCESS
 196:.\source\rte/sc_engine.h ****  *
 197:.\source\rte/sc_engine.h ****  */
 198:.\source\rte/sc_engine.h **** inline RC_t RTE_SC_ENGINE_setStatus( SC_ENGINE_t * const signal, const RTE_signalStatus_t status )
 199:.\source\rte/sc_engine.h **** {
 200:.\source\rte/sc_engine.h ****    signal->status = status;
 201:.\source\rte/sc_engine.h ****    size_t taskNum=0;
 202:.\source\rte/sc_engine.h ****    
 203:.\source\rte/sc_engine.h ****    //Fire error events in case of invalid state
 204:.\source\rte/sc_engine.h ****    if (signal->status == RTE_SIGNALSTATUS_INVALID)
 205:.\source\rte/sc_engine.h ****    {
 206:.\source\rte/sc_engine.h **** 	    //Pointer to the Taskarray, containing the tasks receiving the onUpdate events
 207:.\source\rte/sc_engine.h **** 		TaskTypeArray* pTaskArray = signal->pSigCfg->onErrorTasks;
 208:.\source\rte/sc_engine.h **** 
 209:.\source\rte/sc_engine.h **** 		if (0 != signal->pSigCfg->evOnError && NULL != pTaskArray){
 210:.\source\rte/sc_engine.h **** 			for( taskNum=0 ; taskNum < signal->pSigCfg->onErrorTaskCount ;taskNum++){
 211:.\source\rte/sc_engine.h **** 				TaskType task = (*pTaskArray)[taskNum];
 212:.\source\rte/sc_engine.h **** 				SetEvent( task, signal->pSigCfg->evOnError);
 213:.\source\rte/sc_engine.h **** 			}
 214:.\source\rte/sc_engine.h **** 		}
 215:.\source\rte/sc_engine.h ****    }
 216:.\source\rte/sc_engine.h ****    
 217:.\source\rte/sc_engine.h ****    return RC_SUCCESS;
 218:.\source\rte/sc_engine.h **** }
 219:.\source\rte/sc_engine.h **** 
 220:.\source\rte/sc_engine.h **** 
 221:.\source\rte/sc_engine.h **** /**
 222:.\source\rte/sc_engine.h ****  * Returns the count of refreshing trials (refresh, set or set_raw) that failed.
 223:.\source\rte/sc_engine.h ****  * Prerquisite: The signal is refreshed cyclically
 224:.\source\rte/sc_engine.h ****  *
 225:.\source\rte/sc_engine.h ****  * @param  SC_ENGINE_t * const signal: Pointer to the signal object
 226:.\source\rte/sc_engine.h ****  * @return uint32_t: Number of cycles since the signal has been updated for the last time
 227:.\source\rte/sc_engine.h ****  */
 228:.\source\rte/sc_engine.h **** inline uint32_t RTE_SC_ENGINE_getAge( const SC_ENGINE_t * const signal )
 229:.\source\rte/sc_engine.h **** {
 230:.\source\rte/sc_engine.h ****    return signal->age;
  49              		.loc 2 230 0
  50 000a 2C4C     		ldr	r4, .L13+4
  51              	.LVL3:
  52              	.LBE18:
  53              	.LBE17:
  51:source\asw/swc_engine.c ****     char log[20];
  52:source\asw/swc_engine.c ****     itoa(RTE_SC_ENGINE_getAge(&SO_ENGINE_signal), log, 10);
  54              		.loc 1 52 0
  55 000c 0A22     		movs	r2, #10
  56 000e 01A9     		add	r1, sp, #4
  57 0010 6068     		ldr	r0, [r4, #4]
  58 0012 FFF7FEFF 		bl	itoa
  59              	.LVL4:
  53:source\asw/swc_engine.c ****     UART_LOG_PutString(log);
ARM GAS  C:\Users\acer\AppData\Local\Temp\ccmFJ5HO.s 			page 7


  60              		.loc 1 53 0
  61 0016 01A8     		add	r0, sp, #4
  62 0018 FFF7FEFF 		bl	UART_LOG_PutString
  63              	.LVL5:
  64              	.LBB19:
  65              	.LBB20:
  66              		.loc 2 230 0
  67 001c 6368     		ldr	r3, [r4, #4]
  68              	.LVL6:
  69              	.LBE20:
  70              	.LBE19:
  54:source\asw/swc_engine.c ****     
  55:source\asw/swc_engine.c ****     SC_ENGINE_data_t engineSpd;
  56:source\asw/swc_engine.c ****     
  57:source\asw/swc_engine.c ****     if(RTE_SC_ENGINE_getAge(&SO_ENGINE_signal) < 1000)
  71              		.loc 1 57 0
  72 001e B3F57A7F 		cmp	r3, #1000
  73 0022 25D2     		bcs	.L2
  74              	.LVL7:
  75              	.LBB21:
  58:source\asw/swc_engine.c ****     {
  59:source\asw/swc_engine.c **** 
  60:source\asw/swc_engine.c ****         SC_SPEED_data_t speed = RTE_SC_SPEED_get(&SO_SPEED_signal);
  61:source\asw/swc_engine.c **** 
  62:source\asw/swc_engine.c ****         engineSpd.engine = speed.speed_val;
  76              		.loc 1 62 0
  77 0024 264B     		ldr	r3, .L13+8
  78 0026 1E78     		ldrb	r6, [r3]	@ zero_extendqisi2
  79              	.LVL8:
  80              	.LBB22:
  81              	.LBB23:
 231:.\source\rte/sc_engine.h **** }
 232:.\source\rte/sc_engine.h **** 
 233:.\source\rte/sc_engine.h **** /**
 234:.\source\rte/sc_engine.h ****  * Should be called by application or driver if no new value can be provided.
 235:.\source\rte/sc_engine.h ****  * @param  SC_ENGINE_t * const signal: Pointer to the signal object
 236:.\source\rte/sc_engine.h ****  * @param uint32_t increment: incrementvalue, typically in [ms]
 237:.\source\rte/sc_engine.h ****  * @return void
 238:.\source\rte/sc_engine.h ****  */
 239:.\source\rte/sc_engine.h **** inline void RTE_SC_ENGINE_incAge(  SC_ENGINE_t * const signal , uint32_t increment)
 240:.\source\rte/sc_engine.h **** {
 241:.\source\rte/sc_engine.h **** 	   //Hack....
 242:.\source\rte/sc_engine.h **** 	   if ( 0xFFFF0000 > (signal->age + increment) )
 243:.\source\rte/sc_engine.h **** 	   {
 244:.\source\rte/sc_engine.h **** 	      signal->age += increment;
 245:.\source\rte/sc_engine.h **** 	   }
 246:.\source\rte/sc_engine.h **** }
 247:.\source\rte/sc_engine.h **** 
 248:.\source\rte/sc_engine.h **** 
 249:.\source\rte/sc_engine.h **** /**************************************************************************************************
 250:.\source\rte/sc_engine.h **** /* Application Data read/write Interface																			*/
 251:.\source\rte/sc_engine.h **** /**************************************************************************************************
 252:.\source\rte/sc_engine.h **** 
 253:.\source\rte/sc_engine.h **** /**
 254:.\source\rte/sc_engine.h ****  * Returns the current application value as pointer to the signal payload.
 255:.\source\rte/sc_engine.h ****  * Careful: This is not threadsafe!!!
 256:.\source\rte/sc_engine.h ****  *
ARM GAS  C:\Users\acer\AppData\Local\Temp\ccmFJ5HO.s 			page 8


 257:.\source\rte/sc_engine.h ****  * @param  SC_ENGINE_t * const signal: Pointer to the signal object
 258:.\source\rte/sc_engine.h ****  * @return sc_engine_data_t*: pointer to the current value of the application data buffer
 259:.\source\rte/sc_engine.h ****  *
 260:.\source\rte/sc_engine.h ****  **/
 261:.\source\rte/sc_engine.h **** inline SC_ENGINE_data_t* RTE_SC_ENGINE_getPtr( SC_ENGINE_t * const signal )
 262:.\source\rte/sc_engine.h **** {               
 263:.\source\rte/sc_engine.h ****    //Todo: Critical region cannot be protected using return values																						
 264:.\source\rte/sc_engine.h ****    return &(signal->value);                                                                        
 265:.\source\rte/sc_engine.h **** }
 266:.\source\rte/sc_engine.h **** 
 267:.\source\rte/sc_engine.h **** /**
 268:.\source\rte/sc_engine.h ****  * Returns the current application value of the passed signal instance.
 269:.\source\rte/sc_engine.h ****  *
 270:.\source\rte/sc_engine.h ****  * @param  SC_ENGINE_t * const signal: Pointer to the signal object
 271:.\source\rte/sc_engine.h ****  * @return sc_engine_data_t: current value of the application data buffer
 272:.\source\rte/sc_engine.h ****  *
 273:.\source\rte/sc_engine.h ****  **/
 274:.\source\rte/sc_engine.h **** inline SC_ENGINE_data_t RTE_SC_ENGINE_get( const SC_ENGINE_t * const signal )
 275:.\source\rte/sc_engine.h **** {               
 276:.\source\rte/sc_engine.h ****    //Todo: Critical region cannot be protected using return values																						
 277:.\source\rte/sc_engine.h ****    return signal->value;                                                                           
 278:.\source\rte/sc_engine.h **** }                                                                                                  
 279:.\source\rte/sc_engine.h ****                                                                                                    
 280:.\source\rte/sc_engine.h **** /**
 281:.\source\rte/sc_engine.h ****  * Returns the current application value of the passed signal instance threadsafe.
 282:.\source\rte/sc_engine.h ****  *
 283:.\source\rte/sc_engine.h ****  * @param  SC_ENGINE_t * const signal: Pointer to the signal object
 284:.\source\rte/sc_engine.h ****  * @param  SC_ENGINE_data_t* data: Pointer to the return data Pointer to the signal object
 285:.\source\rte/sc_engine.h ****  * @return RC_SUCCESS
 286:.\source\rte/sc_engine.h ****  *
 287:.\source\rte/sc_engine.h ****  **/
 288:.\source\rte/sc_engine.h **** inline RC_t RTE_SC_ENGINE_getThreadSafe( const SC_ENGINE_t * const signal, SC_ENGINE_data_t * const
 289:.\source\rte/sc_engine.h **** {    
 290:.\source\rte/sc_engine.h ****    if (TRUE == signal->pSigCfg->resourceActive) GetResource(signal->pSigCfg->resource);
 291:.\source\rte/sc_engine.h ****    *data = signal->value;
 292:.\source\rte/sc_engine.h ****    if (TRUE == signal->pSigCfg->resourceActive) ReleaseResource(signal->pSigCfg->resource);        
 293:.\source\rte/sc_engine.h **** 
 294:.\source\rte/sc_engine.h ****    return RC_SUCCESS;                                                                   
 295:.\source\rte/sc_engine.h ****    
 296:.\source\rte/sc_engine.h **** }                                                                                                  
 297:.\source\rte/sc_engine.h ****                                                                                                    
 298:.\source\rte/sc_engine.h **** /**
 299:.\source\rte/sc_engine.h ****  * Sets a new application value to the passed signal instance by passing the new value.
 300:.\source\rte/sc_engine.h ****  * The corresponding driver raw value will be calculated immediately by using the default conversio
 301:.\source\rte/sc_engine.h ****  * signal specific scaling function.
 302:.\source\rte/sc_engine.h ****  * The signal age will be set to 0 and the new status will be 'RTE_SIGNALSTATUS_VALID'.
 303:.\source\rte/sc_engine.h ****  *
 304:.\source\rte/sc_engine.h ****  * @param  SC_ENGINE_t * const signal: Pointer to the signal object
 305:.\source\rte/sc_engine.h ****  * @param  sc_engine_data_t const value: value for the application data buffer
 306:.\source\rte/sc_engine.h ****  * @return RC_t: standard return code, currently only RC_SUCCESS
 307:.\source\rte/sc_engine.h ****  *
 308:.\source\rte/sc_engine.h ****  **/
 309:.\source\rte/sc_engine.h **** inline RC_t RTE_SC_ENGINE_set(SC_ENGINE_t * const signal, const SC_ENGINE_data_t value  )
 310:.\source\rte/sc_engine.h **** {
 311:.\source\rte/sc_engine.h **** 
 312:.\source\rte/sc_engine.h ****    RC_t ret = RC_SUCCESS;
 313:.\source\rte/sc_engine.h ****    size_t taskNum=0;
ARM GAS  C:\Users\acer\AppData\Local\Temp\ccmFJ5HO.s 			page 9


 314:.\source\rte/sc_engine.h **** 
 315:.\source\rte/sc_engine.h **** 
 316:.\source\rte/sc_engine.h ****    if (TRUE == signal->pSigCfg->resourceActive) GetResource(signal->pSigCfg->resource);
  82              		.loc 2 316 0
  83 0028 A268     		ldr	r2, [r4, #8]
 317:.\source\rte/sc_engine.h ****    signal->value  = value;
  84              		.loc 2 317 0
  85 002a 2670     		strb	r6, [r4]
 318:.\source\rte/sc_engine.h ****    signal->age    = 0;
  86              		.loc 2 318 0
  87 002c 0021     		movs	r1, #0
  88 002e 6160     		str	r1, [r4, #4]
 319:.\source\rte/sc_engine.h ****    signal->status = RTE_SIGNALSTATUS_VALID;
  89              		.loc 2 319 0
  90 0030 0221     		movs	r1, #2
  91 0032 6170     		strb	r1, [r4, #1]
 320:.\source\rte/sc_engine.h ****    if (TRUE == signal->pSigCfg->resourceActive) ReleaseResource(signal->pSigCfg->resource);
 321:.\source\rte/sc_engine.h **** 
 322:.\source\rte/sc_engine.h ****    //Pointer to the Taskarray, containing the tasks receiving the onUpdate events
 323:.\source\rte/sc_engine.h ****    TaskTypeArray* pTaskArray = signal->pSigCfg->onUpdateTasks;
  92              		.loc 2 323 0
  93 0034 5569     		ldr	r5, [r2, #20]
  94              	.LVL9:
 324:.\source\rte/sc_engine.h **** 
 325:.\source\rte/sc_engine.h ****    if (0 != signal->pSigCfg->evOnUpdate && NULL != pTaskArray){
  95              		.loc 2 325 0
  96 0036 9368     		ldr	r3, [r2, #8]
  97 0038 73B1     		cbz	r3, .L3
  98 003a 3DB9     		cbnz	r5, .L10
  99 003c 0CE0     		b	.L3
 100              	.LVL10:
 101              	.L5:
 102              	.LBB24:
 326:.\source\rte/sc_engine.h ****       for( taskNum=0 ; taskNum < signal->pSigCfg->onUpdateTaskCount ;taskNum++){
 327:.\source\rte/sc_engine.h **** 		  
 328:.\source\rte/sc_engine.h ****           TaskType task = (*pTaskArray)[taskNum];
 329:.\source\rte/sc_engine.h **** 	      SetEvent( task, signal->pSigCfg->evOnUpdate);
 103              		.loc 2 329 0
 104 003e 9968     		ldr	r1, [r3, #8]
 105 0040 55F82400 		ldr	r0, [r5, r4, lsl #2]
 106 0044 FFF7FEFF 		bl	EE_oo_SetEvent
 107              	.LVL11:
 108              	.LBE24:
 326:.\source\rte/sc_engine.h ****       for( taskNum=0 ; taskNum < signal->pSigCfg->onUpdateTaskCount ;taskNum++){
 109              		.loc 2 326 0
 110 0048 0134     		adds	r4, r4, #1
 111              	.LVL12:
 112 004a 00E0     		b	.L4
 113              	.LVL13:
 114              	.L10:
 325:.\source\rte/sc_engine.h ****       for( taskNum=0 ; taskNum < signal->pSigCfg->onUpdateTaskCount ;taskNum++){
 115              		.loc 2 325 0
 116 004c 0024     		movs	r4, #0
 117              	.LVL14:
 118              	.L4:
 326:.\source\rte/sc_engine.h ****       for( taskNum=0 ; taskNum < signal->pSigCfg->onUpdateTaskCount ;taskNum++){
 119              		.loc 2 326 0
ARM GAS  C:\Users\acer\AppData\Local\Temp\ccmFJ5HO.s 			page 10


 120 004e 1B4B     		ldr	r3, .L13+4
 121 0050 9B68     		ldr	r3, [r3, #8]
 122 0052 1A69     		ldr	r2, [r3, #16]
 123 0054 9442     		cmp	r4, r2
 124 0056 F2D3     		bcc	.L5
 125              	.LVL15:
 126              	.L3:
 127              	.LBE23:
 128              	.LBE22:
  63:source\asw/swc_engine.c ****         RTE_SC_ENGINE_set(&SO_ENGINE_signal, engineSpd);
  64:source\asw/swc_engine.c ****         
  65:source\asw/swc_engine.c ****         //UART log for verification 
  66:source\asw/swc_engine.c ****         
  67:source\asw/swc_engine.c ****         UART_LOG_PutString("Engine speed pos\n");
 129              		.loc 1 67 0
 130 0058 1A48     		ldr	r0, .L13+12
 131 005a FFF7FEFF 		bl	UART_LOG_PutString
 132              	.LVL16:
  68:source\asw/swc_engine.c ****         itoa(engineSpd.engine, log, 10);
 133              		.loc 1 68 0
 134 005e 0A22     		movs	r2, #10
 135 0060 01A9     		add	r1, sp, #4
 136 0062 3046     		mov	r0, r6
 137 0064 FFF7FEFF 		bl	itoa
 138              	.LVL17:
  69:source\asw/swc_engine.c ****         UART_LOG_PutString(log);
 139              		.loc 1 69 0
 140 0068 01A8     		add	r0, sp, #4
 141 006a FFF7FEFF 		bl	UART_LOG_PutString
 142              	.LVL18:
 143              	.LBE21:
 144 006e 18E0     		b	.L6
 145              	.LVL19:
 146              	.L2:
  70:source\asw/swc_engine.c ****         
  71:source\asw/swc_engine.c ****     }
  72:source\asw/swc_engine.c ****     else
  73:source\asw/swc_engine.c ****     {
  74:source\asw/swc_engine.c ****         engineSpd.engine = 0;
 147              		.loc 1 74 0
 148 0070 0021     		movs	r1, #0
 149              	.LVL20:
 150              	.LBB25:
 151              	.LBB26:
 316:.\source\rte/sc_engine.h ****    signal->value  = value;
 152              		.loc 2 316 0
 153 0072 124B     		ldr	r3, .L13+4
 154 0074 9A68     		ldr	r2, [r3, #8]
 317:.\source\rte/sc_engine.h ****    signal->age    = 0;
 155              		.loc 2 317 0
 156 0076 1970     		strb	r1, [r3]
 318:.\source\rte/sc_engine.h ****    signal->status = RTE_SIGNALSTATUS_VALID;
 157              		.loc 2 318 0
 158 0078 5960     		str	r1, [r3, #4]
 319:.\source\rte/sc_engine.h ****    if (TRUE == signal->pSigCfg->resourceActive) ReleaseResource(signal->pSigCfg->resource);
 159              		.loc 2 319 0
 160 007a 0221     		movs	r1, #2
ARM GAS  C:\Users\acer\AppData\Local\Temp\ccmFJ5HO.s 			page 11


 161 007c 5970     		strb	r1, [r3, #1]
 323:.\source\rte/sc_engine.h **** 
 162              		.loc 2 323 0
 163 007e 5569     		ldr	r5, [r2, #20]
 164              	.LVL21:
 325:.\source\rte/sc_engine.h ****       for( taskNum=0 ; taskNum < signal->pSigCfg->onUpdateTaskCount ;taskNum++){
 165              		.loc 2 325 0
 166 0080 9368     		ldr	r3, [r2, #8]
 167 0082 73B1     		cbz	r3, .L6
 168 0084 3DB9     		cbnz	r5, .L11
 169 0086 0CE0     		b	.L6
 170              	.LVL22:
 171              	.L8:
 172              	.LBB27:
 173              		.loc 2 329 0
 174 0088 9968     		ldr	r1, [r3, #8]
 175 008a 55F82400 		ldr	r0, [r5, r4, lsl #2]
 176 008e FFF7FEFF 		bl	EE_oo_SetEvent
 177              	.LVL23:
 178              	.LBE27:
 326:.\source\rte/sc_engine.h **** 		  
 179              		.loc 2 326 0
 180 0092 0134     		adds	r4, r4, #1
 181              	.LVL24:
 182 0094 00E0     		b	.L7
 183              	.LVL25:
 184              	.L11:
 325:.\source\rte/sc_engine.h ****       for( taskNum=0 ; taskNum < signal->pSigCfg->onUpdateTaskCount ;taskNum++){
 185              		.loc 2 325 0
 186 0096 0024     		movs	r4, #0
 187              	.LVL26:
 188              	.L7:
 326:.\source\rte/sc_engine.h **** 		  
 189              		.loc 2 326 0
 190 0098 084B     		ldr	r3, .L13+4
 191 009a 9B68     		ldr	r3, [r3, #8]
 192 009c 1A69     		ldr	r2, [r3, #16]
 193 009e 9442     		cmp	r4, r2
 194 00a0 F2D3     		bcc	.L8
 195              	.LVL27:
 196              	.L6:
 197              	.LBE26:
 198              	.LBE25:
 199              	.LBB28:
 200              	.LBB29:
 330:.\source\rte/sc_engine.h ****       }
 331:.\source\rte/sc_engine.h ****    }
 332:.\source\rte/sc_engine.h **** 
 333:.\source\rte/sc_engine.h ****    return ret;
 334:.\source\rte/sc_engine.h **** }                                                                                                  
 335:.\source\rte/sc_engine.h ****                                                                                                    
 336:.\source\rte/sc_engine.h ****                                                                                                    
 337:.\source\rte/sc_engine.h **** /**************************************************************************************************
 338:.\source\rte/sc_engine.h **** /* Call functions to the connected drivers																			*/
 339:.\source\rte/sc_engine.h **** /**************************************************************************************************
 340:.\source\rte/sc_engine.h **** 
 341:.\source\rte/sc_engine.h ****                                                                                                    
ARM GAS  C:\Users\acer\AppData\Local\Temp\ccmFJ5HO.s 			page 12


 342:.\source\rte/sc_engine.h **** /**
 343:.\source\rte/sc_engine.h ****  *  Calls the connected driver interface to get a new value.
 344:.\source\rte/sc_engine.h ****  *
 345:.\source\rte/sc_engine.h ****  * @param SC_ENGINE_t * const signal: Pointer to the signal object
 346:.\source\rte/sc_engine.h ****  * @return  RC_t: Return value of the driver call
 347:.\source\rte/sc_engine.h ****  *
 348:.\source\rte/sc_engine.h ****  */
 349:.\source\rte/sc_engine.h **** inline RC_t RTE_SC_ENGINE_pullPort( SC_ENGINE_t * const signal )
 350:.\source\rte/sc_engine.h **** {                                                                                                  
 351:.\source\rte/sc_engine.h ****    RC_t ret = RC_SUCCESS;
 352:.\source\rte/sc_engine.h **** 
 353:.\source\rte/sc_engine.h ****                                                                                                    
 354:.\source\rte/sc_engine.h ****    if ( NULL != signal->pSigCfg->inDriver )
 355:.\source\rte/sc_engine.h ****    {
 356:.\source\rte/sc_engine.h **** 	  SC_ENGINE_data_t value = signal->value;
 357:.\source\rte/sc_engine.h ****       ret = signal->pSigCfg->inDriver(&value);
 358:.\source\rte/sc_engine.h ****                                                                                                    
 359:.\source\rte/sc_engine.h ****       if ( ret == RC_SUCCESS )                                                                     
 360:.\source\rte/sc_engine.h ****       {
 361:.\source\rte/sc_engine.h ****     	  //Critical Section
 362:.\source\rte/sc_engine.h ****     	  RTE_SC_ENGINE_set(signal, value);
 363:.\source\rte/sc_engine.h ****       }
 364:.\source\rte/sc_engine.h ****       else
 365:.\source\rte/sc_engine.h ****       {
 366:.\source\rte/sc_engine.h **** 		  //Signal is invalid. Error event (if present) will be fired
 367:.\source\rte/sc_engine.h **** 		  RTE_SC_ENGINE_setStatus(signal, RTE_SIGNALSTATUS_INVALID);
 368:.\source\rte/sc_engine.h ****       }
 369:.\source\rte/sc_engine.h **** 
 370:.\source\rte/sc_engine.h ****    }                                                                                               
 371:.\source\rte/sc_engine.h ****                                                                                                    
 372:.\source\rte/sc_engine.h ****    return ret;                                                                                     
 373:.\source\rte/sc_engine.h **** }                                                                                                  
 374:.\source\rte/sc_engine.h ****                                                                                                    
 375:.\source\rte/sc_engine.h **** /**
 376:.\source\rte/sc_engine.h ****  *  Calls the connected driver interfaces to send a value. Value will not be sent if it is INVALID.
 377:.\source\rte/sc_engine.h ****  *
 378:.\source\rte/sc_engine.h ****  * @param SC_ENGINE_t * const signal: Pointer to the signal object
 379:.\source\rte/sc_engine.h ****  * @return  RC_t: Return value of the driver call
 380:.\source\rte/sc_engine.h ****  *
 381:.\source\rte/sc_engine.h ****  **/
 382:.\source\rte/sc_engine.h **** inline RC_t RTE_SC_ENGINE_pushPort( const SC_ENGINE_t * const signal )
 383:.\source\rte/sc_engine.h **** {                                                                                                  
 384:.\source\rte/sc_engine.h ****    RC_t ret = RC_ERROR;
 385:.\source\rte/sc_engine.h **** 
 386:.\source\rte/sc_engine.h ****    if (RTE_SIGNALSTATUS_VALID == signal->status)
 201              		.loc 2 386 0
 202 00a2 064B     		ldr	r3, .L13+4
 203 00a4 5B78     		ldrb	r3, [r3, #1]	@ zero_extendqisi2
 204 00a6 022B     		cmp	r3, #2
 205 00a8 03D1     		bne	.L1
 387:.\source\rte/sc_engine.h ****    {
 388:.\source\rte/sc_engine.h **** 	   ret = signal->pSigCfg->outDriver(&(signal->value));
 206              		.loc 2 388 0
 207 00aa 0448     		ldr	r0, .L13+4
 208 00ac 8368     		ldr	r3, [r0, #8]
 209 00ae 5B68     		ldr	r3, [r3, #4]
 210 00b0 9847     		blx	r3
ARM GAS  C:\Users\acer\AppData\Local\Temp\ccmFJ5HO.s 			page 13


 211              	.LVL28:
 212              	.L1:
 213              	.LBE29:
 214              	.LBE28:
  75:source\asw/swc_engine.c ****         RTE_SC_ENGINE_set(&SO_ENGINE_signal, engineSpd);
  76:source\asw/swc_engine.c ****         /*
  77:source\asw/swc_engine.c ****         //UART log for verification  
  78:source\asw/swc_engine.c ****         UART_LOG_PutString("Engine speed zero\n");
  79:source\asw/swc_engine.c ****         itoa(engineSpd.engine, log, 10);
  80:source\asw/swc_engine.c ****         UART_LOG_PutString(log);
  81:source\asw/swc_engine.c ****         */
  82:source\asw/swc_engine.c ****     }
  83:source\asw/swc_engine.c ****     RTE_SC_ENGINE_pushPort(&SO_ENGINE_signal);
  84:source\asw/swc_engine.c ****     /* USER CODE END ENGINE_setEngine_run */
  85:source\asw/swc_engine.c **** }
 215              		.loc 1 85 0
 216 00b2 06B0     		add	sp, sp, #24
 217              		.cfi_def_cfa_offset 16
 218              		@ sp needed
 219 00b4 70BD     		pop	{r4, r5, r6, pc}
 220              	.L14:
 221 00b6 00BF     		.align	2
 222              	.L13:
 223 00b8 00000000 		.word	.LC0
 224 00bc 00000000 		.word	SO_ENGINE_signal
 225 00c0 00000000 		.word	SO_SPEED_signal
 226 00c4 04000000 		.word	.LC1
 227              		.cfi_endproc
 228              	.LFE154:
 229              		.size	ENGINE_setEngine_run, .-ENGINE_setEngine_run
 230              		.section	.rodata.str1.4,"aMS",%progbits,1
 231              		.align	2
 232              	.LC0:
 233 0000 0A00     		.ascii	"\012\000"
 234 0002 0000     		.space	2
 235              	.LC1:
 236 0004 456E6769 		.ascii	"Engine speed pos\012\000"
 236      6E652073 
 236      70656564 
 236      20706F73 
 236      0A00
 237              		.text
 238              	.Letext0:
 239              		.file 3 "c:\\program files (x86)\\cypress\\psoc creator\\4.4\\psoc creator\\import\\gnu\\arm\\5.4.
 240              		.file 4 "c:\\program files (x86)\\cypress\\psoc creator\\4.4\\psoc creator\\import\\gnu\\arm\\5.4.
 241              		.file 5 "c:\\program files (x86)\\cypress\\psoc creator\\4.4\\psoc creator\\import\\gnu\\arm\\5.4.
 242              		.file 6 "Generated_Source\\PSoC5/ErikaOS_1_common_ee_types.inc"
 243              		.file 7 "Generated_Source\\PSoC5/ErikaOS_1_cortex_mx_ee_cpu.inc"
 244              		.file 8 "Generated_Source\\PSoC5/ErikaOS_1_ee_oo_common.inc"
 245              		.file 9 ".\\source\\bsw/global.h"
 246              		.file 10 ".\\source\\rte/rte_types.h"
 247              		.file 11 ".\\source\\rte/rte.h"
 248              		.file 12 ".\\source\\rte/sc_speed_type.h"
 249              		.file 13 ".\\source\\rte/sc_speed.h"
 250              		.file 14 ".\\source\\rte/sc_engine_type.h"
 251              		.file 15 "Generated_Source\\PSoC5/ErikaOS_1_ee_oo_intfunc.inc"
 252              		.file 16 "Generated_Source\\PSoC5/ErikaOS_1_cortex_mx_ee_context.inc"
ARM GAS  C:\Users\acer\AppData\Local\Temp\ccmFJ5HO.s 			page 14


 253              		.file 17 "Generated_Source\\PSoC5/ErikaOS_1_common_ee_primitives.inc"
 254              		.file 18 "Generated_Source\\PSoC5/core_cm3.h"
 255              		.file 19 ".\\source\\rte/sp_common.h"
 256              		.file 20 "Generated_Source\\PSoC5/ErikaOS_1_ee_oo_kernel.inc"
 257              		.file 21 "Generated_Source\\PSoC5/UART_LOG.h"
 258              		.file 22 "c:\\program files (x86)\\cypress\\psoc creator\\4.4\\psoc creator\\import\\gnu\\arm\\5.4