ARM GAS  C:\Users\acer\AppData\Local\Temp\ccNW3LOJ.s 			page 1


   1              		.syntax unified
   2              		.cpu cortex-m3
   3              		.fpu softvfp
   4              		.eabi_attribute 20, 1
   5              		.eabi_attribute 21, 1
   6              		.eabi_attribute 23, 3
   7              		.eabi_attribute 24, 1
   8              		.eabi_attribute 25, 1
   9              		.eabi_attribute 26, 1
  10              		.eabi_attribute 30, 1
  11              		.eabi_attribute 34, 1
  12              		.eabi_attribute 18, 4
  13              		.thumb
  14              		.syntax unified
  15              		.file	"watchdog.c"
  16              		.text
  17              	.Ltext0:
  18              		.cfi_sections	.debug_frame
  19              		.section	.text.WD_Start,"ax",%progbits
  20              		.align	2
  21              		.global	WD_Start
  22              		.thumb
  23              		.thumb_func
  24              		.type	WD_Start, %function
  25              	WD_Start:
  26              	.LFB110:
  27              		.file 1 "source\\bsw\\watchdog.c"
   1:source\bsw/watchdog.c **** /**
   2:source\bsw/watchdog.c **** * \file joystick.c
   3:source\bsw/watchdog.c **** * \author P. Fromm
   4:source\bsw/watchdog.c **** * \date 29.8.17
   5:source\bsw/watchdog.c **** *
   6:source\bsw/watchdog.c **** * \brief Joystick driver
   7:source\bsw/watchdog.c **** *
   8:source\bsw/watchdog.c **** * \copyright Copyright ©2016
   9:source\bsw/watchdog.c **** * Department of electrical engineering and information technology, Hochschule Darmstadt - Universit
  10:source\bsw/watchdog.c **** * Permission to use, copy, modify, and distribute this software and its documentation for education
  11:source\bsw/watchdog.c **** * (unless permitted by h_da) and official h_da projects, is hereby granted for enrolled students of
  12:source\bsw/watchdog.c **** * this paragraph and the following paragraph appear in all copies, modifications, and distributions
  13:source\bsw/watchdog.c **** * Contact Prof.Dr.-Ing. Peter Fromm, peter.fromm@h-da.de, Birkenweg 8 64295 Darmstadt - GERMANY for
  14:source\bsw/watchdog.c **** *
  15:source\bsw/watchdog.c **** * \warning This software is a PROTOTYPE version and is not designed or intended for use in producti
  16:source\bsw/watchdog.c **** * The user represents and warrants that it will NOT use or redistribute the Software for such purpo
  17:source\bsw/watchdog.c **** * This prototype is for research purposes only. This software is provided "AS IS," without a warran
  18:source\bsw/watchdog.c **** */
  19:source\bsw/watchdog.c **** 
  20:source\bsw/watchdog.c **** /*****************************************************************************/
  21:source\bsw/watchdog.c **** /* Include files                                                             */
  22:source\bsw/watchdog.c **** /*****************************************************************************/
  23:source\bsw/watchdog.c **** 
  24:source\bsw/watchdog.c **** #include "project.h"
  25:source\bsw/watchdog.c **** #include "watchdog.h"
  26:source\bsw/watchdog.c **** #include "stdlib.h"
  27:source\bsw/watchdog.c **** 
  28:source\bsw/watchdog.c **** 
  29:source\bsw/watchdog.c **** /*****************************************************************************/
  30:source\bsw/watchdog.c **** /* Local pre-processor symbols/macros ('#define')                            */
ARM GAS  C:\Users\acer\AppData\Local\Temp\ccNW3LOJ.s 			page 2


  31:source\bsw/watchdog.c **** /*****************************************************************************/
  32:source\bsw/watchdog.c **** 
  33:source\bsw/watchdog.c **** /*****************************************************************************/
  34:source\bsw/watchdog.c **** /* Global variable definitions (declared in header file with 'extern')       */
  35:source\bsw/watchdog.c **** /*****************************************************************************/
  36:source\bsw/watchdog.c **** uint8_t WDbitfields = 0;
  37:source\bsw/watchdog.c **** /*****************************************************************************/
  38:source\bsw/watchdog.c **** /* Local type definitions ('typedef')                                        */
  39:source\bsw/watchdog.c **** /*****************************************************************************/
  40:source\bsw/watchdog.c **** 
  41:source\bsw/watchdog.c **** /*****************************************************************************/
  42:source\bsw/watchdog.c **** /* Local variable definitions ('static')                                     */
  43:source\bsw/watchdog.c **** /*****************************************************************************/
  44:source\bsw/watchdog.c **** 
  45:source\bsw/watchdog.c **** 
  46:source\bsw/watchdog.c **** 
  47:source\bsw/watchdog.c **** /*****************************************************************************/
  48:source\bsw/watchdog.c **** /* Local function prototypes ('static')                                      */
  49:source\bsw/watchdog.c **** /*****************************************************************************/
  50:source\bsw/watchdog.c **** 
  51:source\bsw/watchdog.c **** 
  52:source\bsw/watchdog.c **** /*****************************************************************************/
  53:source\bsw/watchdog.c **** /* Function implementation - global ('extern') and local ('static')          */
  54:source\bsw/watchdog.c **** /*****************************************************************************/
  55:source\bsw/watchdog.c **** 
  56:source\bsw/watchdog.c **** /**
  57:source\bsw/watchdog.c **** * Activate the Watchdog Trigger
  58:source\bsw/watchdog.c **** * \param WDT_TimeOut_t timeout - [IN] Timeout Period
  59:source\bsw/watchdog.c **** * @return RC_SUCCESS
  60:source\bsw/watchdog.c **** */
  61:source\bsw/watchdog.c **** RC_t WD_Start(WDT_TimeOut_t timeout)
  62:source\bsw/watchdog.c **** {
  28              		.loc 1 62 0
  29              		.cfi_startproc
  30              		@ args = 0, pretend = 0, frame = 0
  31              		@ frame_needed = 0, uses_anonymous_args = 0
  32              	.LVL0:
  33 0000 08B5     		push	{r3, lr}
  34              		.cfi_def_cfa_offset 8
  35              		.cfi_offset 3, -8
  36              		.cfi_offset 14, -4
  63:source\bsw/watchdog.c ****     
  64:source\bsw/watchdog.c ****     CyWdtStart(timeout, CYWDT_LPMODE_NOCHANGE);
  37              		.loc 1 64 0
  38 0002 0021     		movs	r1, #0
  39 0004 FFF7FEFF 		bl	CyWdtStart
  40              	.LVL1:
  65:source\bsw/watchdog.c ****     return RC_SUCCESS;
  66:source\bsw/watchdog.c **** }
  41              		.loc 1 66 0
  42 0008 0020     		movs	r0, #0
  43 000a 08BD     		pop	{r3, pc}
  44              		.cfi_endproc
  45              	.LFE110:
  46              		.size	WD_Start, .-WD_Start
  47              		.section	.text.WD_Trigger,"ax",%progbits
  48              		.align	2
ARM GAS  C:\Users\acer\AppData\Local\Temp\ccNW3LOJ.s 			page 3


  49              		.global	WD_Trigger
  50              		.thumb
  51              		.thumb_func
  52              		.type	WD_Trigger, %function
  53              	WD_Trigger:
  54              	.LFB111:
  67:source\bsw/watchdog.c **** 
  68:source\bsw/watchdog.c **** /**
  69:source\bsw/watchdog.c **** * Service the Watchdog Trigger
  70:source\bsw/watchdog.c **** * @return RC_SUCCESS
  71:source\bsw/watchdog.c **** */
  72:source\bsw/watchdog.c **** RC_t WD_Trigger()
  73:source\bsw/watchdog.c **** {
  55              		.loc 1 73 0
  56              		.cfi_startproc
  57              		@ args = 0, pretend = 0, frame = 0
  58              		@ frame_needed = 0, uses_anonymous_args = 0
  59 0000 08B5     		push	{r3, lr}
  60              		.cfi_def_cfa_offset 8
  61              		.cfi_offset 3, -8
  62              		.cfi_offset 14, -4
  74:source\bsw/watchdog.c ****     CyWdtClear();
  63              		.loc 1 74 0
  64 0002 FFF7FEFF 		bl	CyWdtClear
  65              	.LVL2:
  75:source\bsw/watchdog.c ****     if(WDbitfields == 15)
  66              		.loc 1 75 0
  67 0006 044B     		ldr	r3, .L6
  68 0008 1B78     		ldrb	r3, [r3]	@ zero_extendqisi2
  69 000a 0F2B     		cmp	r3, #15
  70 000c 02D1     		bne	.L4
  76:source\bsw/watchdog.c ****     {
  77:source\bsw/watchdog.c ****         WDbitfields = 0;      //Causing WD resets
  71              		.loc 1 77 0
  72 000e 0022     		movs	r2, #0
  73 0010 014B     		ldr	r3, .L6
  74 0012 1A70     		strb	r2, [r3]
  75              	.L4:
  78:source\bsw/watchdog.c ****     }
  79:source\bsw/watchdog.c ****     return RC_SUCCESS;
  80:source\bsw/watchdog.c **** }
  76              		.loc 1 80 0
  77 0014 0020     		movs	r0, #0
  78 0016 08BD     		pop	{r3, pc}
  79              	.L7:
  80              		.align	2
  81              	.L6:
  82 0018 00000000 		.word	.LANCHOR0
  83              		.cfi_endproc
  84              	.LFE111:
  85              		.size	WD_Trigger, .-WD_Trigger
  86              		.section	.text.WD_CheckResetBit,"ax",%progbits
  87              		.align	2
  88              		.global	WD_CheckResetBit
  89              		.thumb
  90              		.thumb_func
  91              		.type	WD_CheckResetBit, %function
ARM GAS  C:\Users\acer\AppData\Local\Temp\ccNW3LOJ.s 			page 4


  92              	WD_CheckResetBit:
  93              	.LFB112:
  81:source\bsw/watchdog.c **** 
  82:source\bsw/watchdog.c **** 
  83:source\bsw/watchdog.c **** /**
  84:source\bsw/watchdog.c **** * Checks the watchdog bit
  85:source\bsw/watchdog.c **** * @return TRUE if watchdog reset bit was set
  86:source\bsw/watchdog.c **** */
  87:source\bsw/watchdog.c **** boolean_t WD_CheckResetBit()
  88:source\bsw/watchdog.c **** {
  94              		.loc 1 88 0
  95              		.cfi_startproc
  96              		@ args = 0, pretend = 0, frame = 0
  97              		@ frame_needed = 0, uses_anonymous_args = 0
  98              		@ link register save eliminated.
  89:source\bsw/watchdog.c ****     if(CY_RESET_WD == CyResetStatus) return TRUE;
  99              		.loc 1 89 0
 100 0000 034B     		ldr	r3, .L11
 101 0002 1B78     		ldrb	r3, [r3]	@ zero_extendqisi2
 102 0004 082B     		cmp	r3, #8
 103 0006 01D1     		bne	.L10
 104 0008 0120     		movs	r0, #1
 105 000a 7047     		bx	lr
 106              	.L10:
  90:source\bsw/watchdog.c ****     else return FALSE;
 107              		.loc 1 90 0
 108 000c 0020     		movs	r0, #0
  91:source\bsw/watchdog.c **** }
 109              		.loc 1 91 0
 110 000e 7047     		bx	lr
 111              	.L12:
 112              		.align	2
 113              	.L11:
 114 0010 00000000 		.word	CyResetStatus
 115              		.cfi_endproc
 116              	.LFE112:
 117              		.size	WD_CheckResetBit, .-WD_CheckResetBit
 118              		.section	.text.WD_Alive,"ax",%progbits
 119              		.align	2
 120              		.global	WD_Alive
 121              		.thumb
 122              		.thumb_func
 123              		.type	WD_Alive, %function
 124              	WD_Alive:
 125              	.LFB113:
  92:source\bsw/watchdog.c **** 
  93:source\bsw/watchdog.c **** /**
  94:source\bsw/watchdog.c **** * Sets the bit at the corresponding position
  95:source\bsw/watchdog.c **** * @return RC_SUCCESS
  96:source\bsw/watchdog.c **** */
  97:source\bsw/watchdog.c **** RC_t WD_Alive(uint8_t myBitPosition)
  98:source\bsw/watchdog.c **** {
 126              		.loc 1 98 0
 127              		.cfi_startproc
 128              		@ args = 0, pretend = 0, frame = 0
 129              		@ frame_needed = 0, uses_anonymous_args = 0
 130              		@ link register save eliminated.
ARM GAS  C:\Users\acer\AppData\Local\Temp\ccNW3LOJ.s 			page 5


 131              	.LVL3:
  99:source\bsw/watchdog.c ****     WDbitfields = WDbitfields | 1<<myBitPosition;
 132              		.loc 1 99 0
 133 0000 0123     		movs	r3, #1
 134 0002 03FA00F0 		lsl	r0, r3, r0
 135              	.LVL4:
 136 0006 034A     		ldr	r2, .L14
 137 0008 1378     		ldrb	r3, [r2]	@ zero_extendqisi2
 138 000a 1843     		orrs	r0, r0, r3
 139 000c 1070     		strb	r0, [r2]
 100:source\bsw/watchdog.c ****     
 101:source\bsw/watchdog.c ****     /*
 102:source\bsw/watchdog.c ****                 char log[20];
 103:source\bsw/watchdog.c ****             itoa(WDbitfields, log, 10);
 104:source\bsw/watchdog.c ****             UART_LOG_PutString(log);*/
 105:source\bsw/watchdog.c ****     return RC_SUCCESS;
 106:source\bsw/watchdog.c **** }
 140              		.loc 1 106 0
 141 000e 0020     		movs	r0, #0
 142 0010 7047     		bx	lr
 143              	.L15:
 144 0012 00BF     		.align	2
 145              	.L14:
 146 0014 00000000 		.word	.LANCHOR0
 147              		.cfi_endproc
 148              	.LFE113:
 149              		.size	WD_Alive, .-WD_Alive
 150              		.global	WDbitfields
 151              		.bss
 152              		.set	.LANCHOR0,. + 0
 153              		.type	WDbitfields, %object
 154              		.size	WDbitfields, 1
 155              	WDbitfields:
 156 0000 00       		.space	1
 157              		.text
 158              	.Letext0:
 159              		.file 2 "c:\\program files (x86)\\cypress\\psoc creator\\4.4\\psoc creator\\import\\gnu\\arm\\5.4.
 160              		.file 3 "c:\\program files (x86)\\cypress\\psoc creator\\4.4\\psoc creator\\import\\gnu\\arm\\5.4.
 161              		.file 4 "Generated_Source\\PSoC5/cytypes.h"
 162              		.file 5 "Generated_Source\\PSoC5/ErikaOS_1_common_ee_types.inc"
 163              		.file 6 "Generated_Source\\PSoC5/ErikaOS_1_cortex_mx_ee_cpu.inc"
 164              		.file 7 "source\\bsw\\global.h"
 165              		.file 8 "source\\bsw\\watchdog.h"
 166              		.file 9 "Generated_Source\\PSoC5/ErikaOS_1_ee_oo_intfunc.inc"
 167              		.file 10 "Generated_Source\\PSoC5/ErikaOS_1_cortex_mx_ee_context.inc"
 168              		.file 11 "Generated_Source\\PSoC5/ErikaOS_1_common_ee_primitives.inc"
 169              		.file 12 "Generated_Source\\PSoC5/CyLib.h"
 170              		.file 13 "Generated_Source\\PSoC5/core_cm3.h"